target datalayout = "e-m:e-p270:32:32-p271:32:32-p272:64:64-i64:64-i128:128-f80:128-n8:16:32:64-S128"
target triple = "x86_64-pc-linux-gnu"

%struct.Query = type { i32, i32, i32, i64, i8, ptr, i32, i8, i8, i8, i8, i8, i8, i8, i8, i8, i8, i8, ptr, ptr, ptr, ptr, ptr, i32, ptr, ptr, i32, ptr, ptr, ptr, ptr, ptr, i8, ptr, ptr, ptr, ptr, ptr, ptr, ptr, i32, ptr, ptr, ptr, ptr, i32, i32 }
%struct.FromExpr = type { i32, ptr, ptr }

; Function Attrs: nounwind uwtable
define internal void @subquery_push_qual(ptr noundef %0, ptr noundef %1, i32 noundef %2, ptr noundef %3) #0 {
  %5 = alloca ptr, align 8
  %6 = alloca ptr, align 8
  %7 = alloca i32, align 4
  %8 = alloca ptr, align 8
  store ptr %0, ptr %5, align 8
  store ptr %1, ptr %6, align 8
  store i32 %2, ptr %7, align 4
  store ptr %3, ptr %8, align 8
  %9 = load ptr, ptr %5, align 8
  %10 = getelementptr inbounds nuw %struct.Query, ptr %9, i32 0, i32 42
  %11 = load ptr, ptr %10, align 8
  %12 = icmp ne ptr %11, null
  br i1 %12, label %13, label %21

13:                                               ; preds = %4
  %14 = load ptr, ptr %5, align 8
  %15 = getelementptr inbounds nuw %struct.Query, ptr %14, i32 0, i32 42
  %16 = load ptr, ptr %15, align 8
  %17 = load ptr, ptr %5, align 8
  %18 = load ptr, ptr %6, align 8
  %19 = load i32, ptr %7, align 4
  %20 = load ptr, ptr %8, align 8
  call void @recurse_push_qual(ptr noundef %16, ptr noundef %17, ptr noundef %18, i32 noundef %19, ptr noundef %20)
  br label %74

21:                                               ; preds = %4
  %22 = load ptr, ptr %8, align 8
  %23 = load i32, ptr %7, align 4
  %24 = load ptr, ptr %6, align 8
  %25 = load ptr, ptr %5, align 8
  %26 = getelementptr inbounds nuw %struct.Query, ptr %25, i32 0, i32 25
  %27 = load ptr, ptr %26, align 8
  %28 = load ptr, ptr %5, align 8
  %29 = getelementptr inbounds nuw %struct.Query, ptr %28, i32 0, i32 6
  %30 = load i32, ptr %29, align 8
  %31 = load ptr, ptr %5, align 8
  %32 = getelementptr inbounds nuw %struct.Query, ptr %31, i32 0, i32 10
  %33 = call ptr @ReplaceVarsFromTargetList(ptr noundef %22, i32 noundef %23, i32 noundef 0, ptr noundef %24, ptr noundef %27, i32 noundef %30, i32 noundef 0, i32 noundef 0, ptr noundef %32)
  store ptr %33, ptr %8, align 8
  %34 = load ptr, ptr %5, align 8
  %35 = getelementptr inbounds nuw %struct.Query, ptr %34, i32 0, i32 7
  %36 = load i8, ptr %35, align 4, !range !7, !noundef !8
  %37 = trunc i8 %36 to i1
  br i1 %37, label %53, label %38

38:                                               ; preds = %21
  %39 = load ptr, ptr %5, align 8
  %40 = getelementptr inbounds nuw %struct.Query, ptr %39, i32 0, i32 31
  %41 = load ptr, ptr %40, align 8
  %42 = icmp ne ptr %41, null
  br i1 %42, label %53, label %43

43:                                               ; preds = %38
  %44 = load ptr, ptr %5, align 8
  %45 = getelementptr inbounds nuw %struct.Query, ptr %44, i32 0, i32 33
  %46 = load ptr, ptr %45, align 8
  %47 = icmp ne ptr %46, null
  br i1 %47, label %53, label %48

48:                                               ; preds = %43
  %49 = load ptr, ptr %5, align 8
  %50 = getelementptr inbounds nuw %struct.Query, ptr %49, i32 0, i32 34
  %51 = load ptr, ptr %50, align 8
  %52 = icmp ne ptr %51, null
  br i1 %52, label %53, label %61

53:                                               ; preds = %48, %43, %38, %21
  %54 = load ptr, ptr %5, align 8
  %55 = getelementptr inbounds nuw %struct.Query, ptr %54, i32 0, i32 34
  %56 = load ptr, ptr %55, align 8
  %57 = load ptr, ptr %8, align 8
  %58 = call ptr @make_and_qual(ptr noundef %56, ptr noundef %57)
  %59 = load ptr, ptr %5, align 8
  %60 = getelementptr inbounds nuw %struct.Query, ptr %59, i32 0, i32 34
  store ptr %58, ptr %60, align 8
  br label %73

61:                                               ; preds = %48
  %62 = load ptr, ptr %5, align 8
  %63 = getelementptr inbounds nuw %struct.Query, ptr %62, i32 0, i32 21
  %64 = load ptr, ptr %63, align 8
  %65 = getelementptr inbounds nuw %struct.FromExpr, ptr %64, i32 0, i32 2
  %66 = load ptr, ptr %65, align 8
  %67 = load ptr, ptr %8, align 8
  %68 = call ptr @make_and_qual(ptr noundef %66, ptr noundef %67)
  %69 = load ptr, ptr %5, align 8
  %70 = getelementptr inbounds nuw %struct.Query, ptr %69, i32 0, i32 21
  %71 = load ptr, ptr %70, align 8
  %72 = getelementptr inbounds nuw %struct.FromExpr, ptr %71, i32 0, i32 2
  store ptr %68, ptr %72, align 8
  br label %73

73:                                               ; preds = %61, %53
  br label %74

74:                                               ; preds = %73, %13
  ret void
}