; Function Attrs: nounwind uwtable
define internal fastcc void @subquery_push_qual(ptr noundef %0, ptr noundef %1, i32 noundef %2, ptr noundef %3) unnamed_addr #0 {
  %5 = getelementptr inbounds nuw i8, ptr %0, i64 248
  %6 = load ptr, ptr %5, align 8
  %.not = icmp eq ptr %6, null
  br i1 %.not, label %8, label %7

7:                                                ; preds = %4
  tail call fastcc void @recurse_push_qual(ptr noundef nonnull %6, ptr noundef nonnull %0, ptr noundef %1, i32 noundef %2, ptr noundef %3)
  br label %39

8:                                                ; preds = %4
  %9 = getelementptr inbounds nuw i8, ptr %0, i64 112
  %10 = load ptr, ptr %9, align 8
  %11 = getelementptr inbounds nuw i8, ptr %0, i64 40
  %12 = load i32, ptr %11, align 8
  %13 = getelementptr inbounds nuw i8, ptr %0, i64 47
  %14 = tail call ptr @ReplaceVarsFromTargetList(ptr noundef %3, i32 noundef %2, i32 noundef 0, ptr noundef %1, ptr noundef %10, i32 noundef %12, i32 noundef 0, i32 noundef 0, ptr noundef nonnull %13) #9
  %15 = getelementptr inbounds nuw i8, ptr %0, i64 44
  %16 = load i8, ptr %15, align 4, !range !4, !noundef !5
  %17 = trunc nuw i8 %16 to i1
  br i1 %17, label %27, label %18

18:                                               ; preds = %8
  %19 = getelementptr inbounds nuw i8, ptr %0, i64 160
  %20 = load ptr, ptr %19, align 8
  %.not21 = icmp eq ptr %20, null
  br i1 %.not21, label %21, label %27

21:                                               ; preds = %18
  %22 = getelementptr inbounds nuw i8, ptr %0, i64 176
  %23 = load ptr, ptr %22, align 8
  %.not22 = icmp eq ptr %23, null
  br i1 %.not22, label %24, label %27

24:                                               ; preds = %21
  %25 = getelementptr inbounds nuw i8, ptr %0, i64 184
  %26 = load ptr, ptr %25, align 8
  %.not23 = icmp eq ptr %26, null
  br i1 %.not23, label %31, label %27

27:                                               ; preds = %24, %21, %18, %8
  %28 = getelementptr inbounds nuw i8, ptr %0, i64 184
  %29 = load ptr, ptr %28, align 8
  %30 = tail call ptr @make_and_qual(ptr noundef %29, ptr noundef %14) #9
  store ptr %30, ptr %28, align 8
  br label %39

31:                                               ; preds = %24
  %32 = getelementptr inbounds nuw i8, ptr %0, i64 80
  %33 = load ptr, ptr %32, align 8
  %34 = getelementptr inbounds nuw i8, ptr %33, i64 16
  %35 = load ptr, ptr %34, align 8
  %36 = tail call ptr @make_and_qual(ptr noundef %35, ptr noundef %14) #9
  %37 = load ptr, ptr %32, align 8
  %38 = getelementptr inbounds nuw i8, ptr %37, i64 16
  store ptr %36, ptr %38, align 8
  br label %39

39:                                               ; preds = %27, %31, %7
  ret void
}